target datalayout = "e-m:e-p270:32:32-p271:32:32-p272:64:64-i64:64-i128:128-f80:128-n8:16:32:64-S128"
target triple = "x86_64-pc-linux-gnu"

%class.XRelocationSet = type { ptr, %class.XForwardingAllocator, ptr, i64 }
%class.XForwardingAllocator = type { ptr, ptr, ptr }
%class.XRelocationSetInstallTask = type { %class.XTask, ptr, ptr, i64, %class.XArrayIteratorImpl, %class.XArrayIteratorImpl, i64, i64 }
%class.XTask = type { ptr, %"class.XTask::Task" }
%"class.XTask::Task" = type { %class.WorkerTask.base, ptr }
%class.WorkerTask.base = type <{ ptr, ptr, i32 }>
%class.XArrayIteratorImpl = type { ptr, ptr }
%class.XRelocationSetSelector = type { %class.XRelocationSetSelectorGroup, %class.XRelocationSetSelectorGroup, %class.XRelocationSetSelectorGroup, %class.GrowableArrayCHeap }
%class.XRelocationSetSelectorGroup = type { ptr, i8, i64, i64, i64, %class.GrowableArrayCHeap, i64, %class.XRelocationSetSelectorGroupStats }
%class.XRelocationSetSelectorGroupStats = type { i64, i64, i64, i64, i64, i64 }
%class.GrowableArrayCHeap = type { %class.GrowableArrayWithAllocator }
%class.GrowableArrayWithAllocator = type { %class.GrowableArrayView }
%class.GrowableArrayView = type { %class.GrowableArrayBase, ptr }
%class.GrowableArrayBase = type { i32, i32 }
%"struct.Atomic::PlatformAdd" = type { i8 }

@.str = private unnamed_addr constant [26 x i8] c"XRelocationSetInstallTask\00", align 1
@_ZTV25XRelocationSetInstallTask = linkonce_odr hidden unnamed_addr constant { [3 x ptr] } { [3 x ptr] [ptr null, ptr null, ptr @_ZN25XRelocationSetInstallTask4workEv] }, comdat, align 8

; Function Attrs: mustprogress nounwind uwtable
define linkonce_odr hidden noundef ptr @_ZN6Atomic7AddImplIPcmvE12scale_resultEPKc(ptr noundef %0) #1 comdat align 2 {
  %2 = alloca ptr, align 8
  store ptr %0, ptr %2, align 8
  %3 = load ptr, ptr %2, align 8
  ret ptr %3
}

; Function Attrs: mustprogress nounwind uwtable
define linkonce_odr hidden noundef ptr @_ZNK6Atomic11PlatformAddILm8EE14fetch_then_addIPKcmEET_PVS5_T0_19atomic_memory_order(ptr noundef nonnull align 1 dereferenceable(1) %0, ptr noundef %1, i64 noundef %2, i32 noundef %3) #1 comdat align 2 {
  %5 = alloca ptr, align 8
  %6 = alloca ptr, align 8
  %7 = alloca i64, align 8
  %8 = alloca i32, align 4
  %9 = alloca ptr, align 8
  store ptr %0, ptr %5, align 8
  store ptr %1, ptr %6, align 8
  store i64 %2, ptr %7, align 8
  store i32 %3, ptr %8, align 4
  %10 = load i64, ptr %7, align 8
  %11 = load ptr, ptr %6, align 8
  %12 = call ptr asm sideeffect "lock xaddq $0,($2)", "=r,0,r,~{cc},~{memory},~{dirflag},~{fpsr},~{flags}"(i64 %10, ptr %11) #7, !srcloc !10
  store ptr %12, ptr %9, align 8
  %13 = load ptr, ptr %9, align 8
  ret ptr %13
}

; Function Attrs: mustprogress nounwind uwtable
define linkonce_odr hidden noundef i64 @_ZN6Atomic7AddImplIPcmvE12scale_addendEm(i64 noundef %0) #1 comdat align 2 {
  %2 = alloca i64, align 8
  store i64 %0, ptr %2, align 8
  %3 = load i64, ptr %2, align 8
  %4 = mul i64 %3, 1
  ret i64 %4
}

; Function Attrs: mustprogress nounwind uwtable
define linkonce_odr hidden noundef ptr @_ZN6Atomic7AddImplIPcmvE12unscale_destEPVS1_(ptr noundef %0) #1 comdat align 2 {
  %2 = alloca ptr, align 8
  store ptr %0, ptr %2, align 8
  %3 = load ptr, ptr %2, align 8
  ret ptr %3
}

; Function Attrs: mustprogress nounwind uwtable
define linkonce_odr hidden noundef ptr @_ZN6Atomic7AddImplIPcmvE14fetch_then_addEPVS1_m19atomic_memory_order(ptr noundef %0, i64 noundef %1, i32 noundef %2) #1 comdat align 2 {
  %4 = alloca ptr, align 8
  %5 = alloca i64, align 8
  %6 = alloca i32, align 4
  %7 = alloca %"struct.Atomic::PlatformAdd", align 1
  store ptr %0, ptr %4, align 8
  store i64 %1, ptr %5, align 8
  store i32 %2, ptr %6, align 4
  %8 = load ptr, ptr %4, align 8
  %9 = call noundef ptr @_ZN6Atomic7AddImplIPcmvE12unscale_destEPVS1_(ptr noundef %8)
  %10 = load i64, ptr %5, align 8
  %11 = call noundef i64 @_ZN6Atomic7AddImplIPcmvE12scale_addendEm(i64 noundef %10)
  %12 = load i32, ptr %6, align 4
  %13 = call noundef ptr @_ZNK6Atomic11PlatformAddILm8EE14fetch_then_addIPKcmEET_PVS5_T0_19atomic_memory_order(ptr noundef nonnull align 1 dereferenceable(1) %7, ptr noundef %9, i64 noundef %11, i32 noundef %12)
  %14 = call noundef ptr @_ZN6Atomic7AddImplIPcmvE12scale_resultEPKc(ptr noundef %13)
  ret ptr %14
}

; Function Attrs: mustprogress nounwind uwtable
define linkonce_odr hidden noundef ptr @_ZN6Atomic14fetch_then_addIPcmEET_PVS2_T0_19atomic_memory_order(ptr noundef %0, i64 noundef %1, i32 noundef %2) #1 comdat align 2 {
  %4 = alloca ptr, align 8
  %5 = alloca i64, align 8
  %6 = alloca i32, align 4
  store ptr %0, ptr %4, align 8
  store i64 %1, ptr %5, align 8
  store i32 %2, ptr %6, align 4
  %7 = load ptr, ptr %4, align 8
  %8 = load i64, ptr %5, align 8
  %9 = load i32, ptr %6, align 4
  %10 = call noundef ptr @_ZN6Atomic7AddImplIPcmvE14fetch_then_addEPVS1_m19atomic_memory_order(ptr noundef %7, i64 noundef %8, i32 noundef %9)
  ret ptr %10
}

; Function Attrs: mustprogress nounwind uwtable
define linkonce_odr hidden noundef i64 @_ZNK27XRelocationSetSelectorGroup18forwarding_entriesEv(ptr noundef nonnull align 8 dereferenceable(112) %0) #1 comdat align 2 {
  %2 = alloca ptr, align 8
  store ptr %0, ptr %2, align 8
  %3 = load ptr, ptr %2, align 8
  %4 = getelementptr inbounds %class.XRelocationSetSelectorGroup, ptr %3, i32 0, i32 6
  %5 = load i64, ptr %4, align 8
  ret i64 %5
}

; Function Attrs: mustprogress nounwind uwtable
define linkonce_odr hidden void @_ZN18XArrayIteratorImplIP5XPageLb1EEC2EPKS1_m(ptr noundef nonnull align 8 dereferenceable(16) %0, ptr noundef %1, i64 noundef %2) unnamed_addr #1 comdat align 2 {
  %4 = alloca ptr, align 8
  %5 = alloca ptr, align 8
  %6 = alloca i64, align 8
  store ptr %0, ptr %4, align 8
  store ptr %1, ptr %5, align 8
  store i64 %2, ptr %6, align 8
  %7 = load ptr, ptr %4, align 8
  %8 = getelementptr inbounds %class.XArrayIteratorImpl, ptr %7, i32 0, i32 0
  %9 = load ptr, ptr %5, align 8
  store ptr %9, ptr %8, align 8
  %10 = getelementptr inbounds %class.XArrayIteratorImpl, ptr %7, i32 0, i32 1
  %11 = load ptr, ptr %5, align 8
  %12 = load i64, ptr %6, align 8
  %13 = getelementptr inbounds ptr, ptr %11, i64 %12
  store ptr %13, ptr %10, align 8
  ret void
}

; Function Attrs: mustprogress nounwind uwtable
define linkonce_odr hidden noundef ptr @_ZNK17GrowableArrayViewIP5XPageE6adr_atEi(ptr noundef nonnull align 8 dereferenceable(16) %0, i32 noundef %1) #1 comdat align 2 {
  %3 = alloca ptr, align 8
  %4 = alloca i32, align 4
  store ptr %0, ptr %3, align 8
  store i32 %1, ptr %4, align 4
  %5 = load ptr, ptr %3, align 8
  %6 = getelementptr inbounds %class.GrowableArrayView, ptr %5, i32 0, i32 1
  %7 = load ptr, ptr %6, align 8
  %8 = load i32, ptr %4, align 4
  %9 = sext i32 %8 to i64
  %10 = getelementptr inbounds ptr, ptr %7, i64 %9
  ret ptr %10
}

; Function Attrs: mustprogress nounwind uwtable
define linkonce_odr hidden noundef zeroext i1 @_ZNK17GrowableArrayBase8is_emptyEv(ptr noundef nonnull align 4 dereferenceable(8) %0) #1 comdat align 2 {
  %2 = alloca ptr, align 8
  store ptr %0, ptr %2, align 8
  %3 = load ptr, ptr %2, align 8
  %4 = getelementptr inbounds %class.GrowableArrayBase, ptr %3, i32 0, i32 0
  %5 = load i32, ptr %4, align 4
  %6 = icmp eq i32 %5, 0
  ret i1 %6
}

; Function Attrs: mustprogress nounwind uwtable
define linkonce_odr hidden noundef ptr @_ZNK27XRelocationSetSelectorGroup8selectedEv(ptr noundef nonnull align 8 dereferenceable(112) %0) #1 comdat align 2 {
  %2 = alloca ptr, align 8
  store ptr %0, ptr %2, align 8
  %3 = load ptr, ptr %2, align 8
  %4 = getelementptr inbounds %class.XRelocationSetSelectorGroup, ptr %3, i32 0, i32 5
  ret ptr %4
}

; Function Attrs: mustprogress nounwind uwtable
define linkonce_odr hidden noundef ptr @_ZN20XForwardingAllocator5allocEm(ptr noundef nonnull align 8 dereferenceable(24) %0, i64 noundef %1) #1 comdat align 2 {
  %3 = alloca ptr, align 8
  %4 = alloca i64, align 8
  %5 = alloca ptr, align 8
  store ptr %0, ptr %3, align 8
  store i64 %1, ptr %4, align 8
  %6 = load ptr, ptr %3, align 8
  %7 = getelementptr inbounds %class.XForwardingAllocator, ptr %6, i32 0, i32 2
  %8 = load i64, ptr %4, align 8
  %9 = call noundef ptr @_ZN6Atomic14fetch_then_addIPcmEET_PVS2_T0_19atomic_memory_order(ptr noundef %7, i64 noundef %8, i32 noundef 8)
  store ptr %9, ptr %5, align 8
  %10 = load ptr, ptr %5, align 8
  ret ptr %10
}

; Function Attrs: mustprogress nounwind uwtable
define linkonce_odr hidden noundef i64 @_ZNK22XRelocationSetSelector18forwarding_entriesEv(ptr noundef nonnull align 8 dereferenceable(352) %0) #1 comdat align 2 {
  %2 = alloca ptr, align 8
  store ptr %0, ptr %2, align 8
  %3 = load ptr, ptr %2, align 8
  %4 = getelementptr inbounds %class.XRelocationSetSelector, ptr %3, i32 0, i32 0
  %5 = call noundef i64 @_ZNK27XRelocationSetSelectorGroup18forwarding_entriesEv(ptr noundef nonnull align 8 dereferenceable(112) %4)
  %6 = getelementptr inbounds %class.XRelocationSetSelector, ptr %3, i32 0, i32 1
  %7 = call noundef i64 @_ZNK27XRelocationSetSelectorGroup18forwarding_entriesEv(ptr noundef nonnull align 8 dereferenceable(112) %6)
  %8 = add i64 %5, %7
  ret i64 %8
}

; Function Attrs: mustprogress nounwind uwtable
define linkonce_odr hidden void @_ZN18XArrayIteratorImplIP5XPageLb1EEC2EPK18GrowableArrayCHeapIS1_L8MEMFLAGS5EE(ptr noundef nonnull align 8 dereferenceable(16) %0, ptr noundef %1) unnamed_addr #1 comdat align 2 {
  %3 = alloca ptr, align 8
  %4 = alloca ptr, align 8
  store ptr %0, ptr %3, align 8
  store ptr %1, ptr %4, align 8
  %5 = load ptr, ptr %3, align 8
  %6 = load ptr, ptr %4, align 8
  %7 = call noundef zeroext i1 @_ZNK17GrowableArrayBase8is_emptyEv(ptr noundef nonnull align 4 dereferenceable(8) %6)
  br i1 %7, label %8, label %9

8:                                                ; preds = %2
  br label %12

9:                                                ; preds = %2
  %10 = load ptr, ptr %4, align 8
  %11 = call noundef ptr @_ZNK17GrowableArrayViewIP5XPageE6adr_atEi(ptr noundef nonnull align 8 dereferenceable(16) %10, i32 noundef 0)
  br label %12

12:                                               ; preds = %9, %8
  %13 = phi ptr [ null, %8 ], [ %11, %9 ]
  %14 = load ptr, ptr %4, align 8
  %15 = call noundef i32 @_ZNK17GrowableArrayBase6lengthEv(ptr noundef nonnull align 4 dereferenceable(8) %14)
  %16 = sext i32 %15 to i64
  call void @_ZN18XArrayIteratorImplIP5XPageLb1EEC2EPKS1_m(ptr noundef nonnull align 8 dereferenceable(16) %5, ptr noundef %13, i64 noundef %16)
  ret void
}

; Function Attrs: mustprogress nounwind uwtable
define linkonce_odr hidden noundef ptr @_ZNK22XRelocationSetSelector6mediumEv(ptr noundef nonnull align 8 dereferenceable(352) %0) #1 comdat align 2 {
  %2 = alloca ptr, align 8
  store ptr %0, ptr %2, align 8
  %3 = load ptr, ptr %2, align 8
  %4 = getelementptr inbounds %class.XRelocationSetSelector, ptr %3, i32 0, i32 1
  %5 = call noundef ptr @_ZNK27XRelocationSetSelectorGroup8selectedEv(ptr noundef nonnull align 8 dereferenceable(112) %4)
  ret ptr %5
}

; Function Attrs: mustprogress nounwind uwtable
define linkonce_odr hidden noundef i32 @_ZNK17GrowableArrayBase6lengthEv(ptr noundef nonnull align 4 dereferenceable(8) %0) #1 comdat align 2 {
  %2 = alloca ptr, align 8
  store ptr %0, ptr %2, align 8
  %3 = load ptr, ptr %2, align 8
  %4 = getelementptr inbounds %class.GrowableArrayBase, ptr %3, i32 0, i32 0
  %5 = load i32, ptr %4, align 4
  ret i32 %5
}

; Function Attrs: mustprogress nounwind uwtable
define linkonce_odr hidden noundef ptr @_ZNK22XRelocationSetSelector5smallEv(ptr noundef nonnull align 8 dereferenceable(352) %0) #1 comdat align 2 {
  %2 = alloca ptr, align 8
  store ptr %0, ptr %2, align 8
  %3 = load ptr, ptr %2, align 8
  %4 = getelementptr inbounds %class.XRelocationSetSelector, ptr %3, i32 0, i32 0
  %5 = call noundef ptr @_ZNK27XRelocationSetSelectorGroup8selectedEv(ptr noundef nonnull align 8 dereferenceable(112) %4)
  ret ptr %5
}

; Function Attrs: mustprogress nounwind uwtable
define linkonce_odr hidden void @_ZN25XRelocationSetInstallTaskD2Ev(ptr noundef nonnull align 8 dereferenceable(112) %0) unnamed_addr #1 comdat align 2 {
  %2 = alloca ptr, align 8
  store ptr %0, ptr %2, align 8
  %3 = load ptr, ptr %2, align 8
  store ptr getelementptr inbounds inrange(-16, 8) ({ [3 x ptr] }, ptr @_ZTV25XRelocationSetInstallTask, i32 0, i32 0, i32 2), ptr %3, align 8
  ret void
}

; Function Attrs: mustprogress nounwind uwtable
define linkonce_odr hidden noundef i64 @_ZNK20XForwardingAllocator4sizeEv(ptr noundef nonnull align 8 dereferenceable(24) %0) #1 comdat align 2 {
  %2 = alloca ptr, align 8
  store ptr %0, ptr %2, align 8
  %3 = load ptr, ptr %2, align 8
  %4 = getelementptr inbounds %class.XForwardingAllocator, ptr %3, i32 0, i32 1
  %5 = load ptr, ptr %4, align 8
  %6 = getelementptr inbounds %class.XForwardingAllocator, ptr %3, i32 0, i32 0
  %7 = load ptr, ptr %6, align 8
  %8 = ptrtoint ptr %5 to i64
  %9 = ptrtoint ptr %7 to i64
  %10 = sub i64 %8, %9
  ret i64 %10
}

; Function Attrs: mustprogress nounwind uwtable
define linkonce_odr hidden noundef i64 @_ZNK25XRelocationSetInstallTask12nforwardingsEv(ptr noundef nonnull align 8 dereferenceable(112) %0) #1 comdat align 2 {
  %2 = alloca ptr, align 8
  store ptr %0, ptr %2, align 8
  %3 = load ptr, ptr %2, align 8
  %4 = getelementptr inbounds %class.XRelocationSetInstallTask, ptr %3, i32 0, i32 3
  %5 = load i64, ptr %4, align 8
  ret i64 %5
}

; Function Attrs: mustprogress nounwind uwtable
define linkonce_odr hidden noundef ptr @_ZNK25XRelocationSetInstallTask11forwardingsEv(ptr noundef nonnull align 8 dereferenceable(112) %0) #1 comdat align 2 {
  %2 = alloca ptr, align 8
  store ptr %0, ptr %2, align 8
  %3 = load ptr, ptr %2, align 8
  %4 = getelementptr inbounds %class.XRelocationSetInstallTask, ptr %3, i32 0, i32 2
  %5 = load ptr, ptr %4, align 8
  ret ptr %5
}

; Function Attrs: mustprogress nounwind uwtable
define linkonce_odr hidden void @_ZN25XRelocationSetInstallTaskC2EP20XForwardingAllocatorPK22XRelocationSetSelector(ptr noundef nonnull align 8 dereferenceable(112) %0, ptr noundef %1, ptr noundef %2) unnamed_addr #1 comdat align 2 {
  %4 = alloca ptr, align 8
  %5 = alloca ptr, align 8
  %6 = alloca ptr, align 8
  %7 = alloca i64, align 8
  %8 = alloca i64, align 8
  %9 = alloca i64, align 8
  store ptr %0, ptr %4, align 8
  store ptr %1, ptr %5, align 8
  store ptr %2, ptr %6, align 8
  %10 = load ptr, ptr %4, align 8
  call void @_ZN5XTaskC2EPKc(ptr noundef nonnull align 8 dereferenceable(40) %10, ptr noundef @.str)
  store ptr getelementptr inbounds inrange(-16, 8) ({ [3 x ptr] }, ptr @_ZTV25XRelocationSetInstallTask, i32 0, i32 0, i32 2), ptr %10, align 8
  %11 = getelementptr inbounds %class.XRelocationSetInstallTask, ptr %10, i32 0, i32 1
  %12 = load ptr, ptr %5, align 8
  store ptr %12, ptr %11, align 8
  %13 = getelementptr inbounds %class.XRelocationSetInstallTask, ptr %10, i32 0, i32 2
  store ptr null, ptr %13, align 8
  %14 = getelementptr inbounds %class.XRelocationSetInstallTask, ptr %10, i32 0, i32 3
  %15 = load ptr, ptr %6, align 8
  %16 = call noundef ptr @_ZNK22XRelocationSetSelector5smallEv(ptr noundef nonnull align 8 dereferenceable(352) %15)
  %17 = call noundef i32 @_ZNK17GrowableArrayBase6lengthEv(ptr noundef nonnull align 4 dereferenceable(8) %16)
  %18 = load ptr, ptr %6, align 8
  %19 = call noundef ptr @_ZNK22XRelocationSetSelector6mediumEv(ptr noundef nonnull align 8 dereferenceable(352) %18)
  %20 = call noundef i32 @_ZNK17GrowableArrayBase6lengthEv(ptr noundef nonnull align 4 dereferenceable(8) %19)
  %21 = add nsw i32 %17, %20
  %22 = sext i32 %21 to i64
  store i64 %22, ptr %14, align 8
  %23 = getelementptr inbounds %class.XRelocationSetInstallTask, ptr %10, i32 0, i32 4
  %24 = load ptr, ptr %6, align 8
  %25 = call noundef ptr @_ZNK22XRelocationSetSelector5smallEv(ptr noundef nonnull align 8 dereferenceable(352) %24)
  call void @_ZN18XArrayIteratorImplIP5XPageLb1EEC2EPK18GrowableArrayCHeapIS1_L8MEMFLAGS5EE(ptr noundef nonnull align 8 dereferenceable(16) %23, ptr noundef %25)
  %26 = getelementptr inbounds %class.XRelocationSetInstallTask, ptr %10, i32 0, i32 5
  %27 = load ptr, ptr %6, align 8
  %28 = call noundef ptr @_ZNK22XRelocationSetSelector6mediumEv(ptr noundef nonnull align 8 dereferenceable(352) %27)
  call void @_ZN18XArrayIteratorImplIP5XPageLb1EEC2EPK18GrowableArrayCHeapIS1_L8MEMFLAGS5EE(ptr noundef nonnull align 8 dereferenceable(16) %26, ptr noundef %28)
  %29 = getelementptr inbounds %class.XRelocationSetInstallTask, ptr %10, i32 0, i32 6
  %30 = load ptr, ptr %6, align 8
  %31 = call noundef ptr @_ZNK22XRelocationSetSelector6mediumEv(ptr noundef nonnull align 8 dereferenceable(352) %30)
  %32 = call noundef i32 @_ZNK17GrowableArrayBase6lengthEv(ptr noundef nonnull align 4 dereferenceable(8) %31)
  %33 = sext i32 %32 to i64
  store volatile i64 %33, ptr %29, align 8
  %34 = getelementptr inbounds %class.XRelocationSetInstallTask, ptr %10, i32 0, i32 7
  store volatile i64 0, ptr %34, align 8
  %35 = getelementptr inbounds %class.XRelocationSetInstallTask, ptr %10, i32 0, i32 3
  %36 = load i64, ptr %35, align 8
  %37 = mul i64 %36, 8
  store i64 %37, ptr %7, align 8
  %38 = getelementptr inbounds %class.XRelocationSetInstallTask, ptr %10, i32 0, i32 3
  %39 = load i64, ptr %38, align 8
  %40 = mul i64 %39, 136
  store i64 %40, ptr %8, align 8
  %41 = load ptr, ptr %6, align 8
  %42 = call noundef i64 @_ZNK22XRelocationSetSelector18forwarding_entriesEv(ptr noundef nonnull align 8 dereferenceable(352) %41)
  %43 = mul i64 %42, 8
  store i64 %43, ptr %9, align 8
  %44 = getelementptr inbounds %class.XRelocationSetInstallTask, ptr %10, i32 0, i32 1
  %45 = load ptr, ptr %44, align 8
  %46 = load i64, ptr %7, align 8
  %47 = load i64, ptr %8, align 8
  %48 = add i64 %46, %47
  %49 = load i64, ptr %9, align 8
  %50 = add i64 %48, %49
  call void @_ZN20XForwardingAllocator5resetEm(ptr noundef nonnull align 8 dereferenceable(24) %45, i64 noundef %50)
  %51 = getelementptr inbounds %class.XRelocationSetInstallTask, ptr %10, i32 0, i32 1
  %52 = load ptr, ptr %51, align 8
  %53 = load i64, ptr %7, align 8
  %54 = call noundef ptr @_ZN20XForwardingAllocator5allocEm(ptr noundef nonnull align 8 dereferenceable(24) %52, i64 noundef %53)
  %55 = getelementptr inbounds %class.XRelocationSetInstallTask, ptr %10, i32 0, i32 2
  store ptr %54, ptr %55, align 8
  ret void
}

; Function Attrs: mustprogress nounwind uwtable
define hidden void @_ZN14XRelocationSet7installEPK22XRelocationSetSelector(ptr noundef nonnull align 8 dereferenceable(48) %0, ptr noundef %1) #1 align 2 {
  %3 = alloca ptr, align 8
  %4 = alloca ptr, align 8
  %5 = alloca %class.XRelocationSetInstallTask, align 8
  store ptr %0, ptr %3, align 8
  store ptr %1, ptr %4, align 8
  %6 = load ptr, ptr %3, align 8
  %7 = getelementptr inbounds %class.XRelocationSet, ptr %6, i32 0, i32 1
  %8 = load ptr, ptr %4, align 8
  call void @_ZN25XRelocationSetInstallTaskC2EP20XForwardingAllocatorPK22XRelocationSetSelector(ptr noundef nonnull align 8 dereferenceable(112) %5, ptr noundef %7, ptr noundef %8)
  %9 = getelementptr inbounds %class.XRelocationSet, ptr %6, i32 0, i32 0
  %10 = load ptr, ptr %9, align 8
  call void @_ZN8XWorkers3runEP5XTask(ptr noundef nonnull align 8 dereferenceable(120) %10, ptr noundef %5)
  %11 = call noundef ptr @_ZNK25XRelocationSetInstallTask11forwardingsEv(ptr noundef nonnull align 8 dereferenceable(112) %5)
  %12 = getelementptr inbounds %class.XRelocationSet, ptr %6, i32 0, i32 2
  store ptr %11, ptr %12, align 8
  %13 = call noundef i64 @_ZNK25XRelocationSetInstallTask12nforwardingsEv(ptr noundef nonnull align 8 dereferenceable(112) %5)
  %14 = getelementptr inbounds %class.XRelocationSet, ptr %6, i32 0, i32 3
  store i64 %13, ptr %14, align 8
  %15 = getelementptr inbounds %class.XRelocationSet, ptr %6, i32 0, i32 1
  %16 = call noundef i64 @_ZNK20XForwardingAllocator4sizeEv(ptr noundef nonnull align 8 dereferenceable(24) %15)
  call void @_ZN15XStatRelocation29set_at_install_relocation_setEm(i64 noundef %16)
  call void @_ZN25XRelocationSetInstallTaskD2Ev(ptr noundef nonnull align 8 dereferenceable(112) %5) #7
  ret void
}