; Function Attrs: mustprogress nounwind uwtable
define hidden void @_ZN14XRelocationSet7installEPK22XRelocationSetSelector(ptr noundef nonnull align 8 dereferenceable(48) %0, ptr nocapture noundef readonly %1) local_unnamed_addr #0 align 2 {
  %3 = alloca %class.XRelocationSetInstallTask, align 8
  %4 = getelementptr inbounds i8, ptr %0, i64 8
  call void @_ZN5XTaskC2EPKc(ptr noundef nonnull align 8 dereferenceable(40) %3, ptr noundef nonnull @.str) #8
  store ptr getelementptr inbounds inrange(-16, 8) (i8, ptr @_ZTV25XRelocationSetInstallTask, i64 16), ptr %3, align 8
  %5 = getelementptr inbounds i8, ptr %3, i64 40
  store ptr %4, ptr %5, align 8
  %6 = getelementptr inbounds i8, ptr %3, i64 48
  store ptr null, ptr %6, align 8
  %7 = getelementptr inbounds i8, ptr %3, i64 56
  %8 = getelementptr inbounds i8, ptr %1, i64 40
  %9 = load i32, ptr %8, align 4
  %10 = getelementptr inbounds i8, ptr %1, i64 152
  %11 = load i32, ptr %10, align 4
  %12 = add nsw i32 %11, %9
  %13 = sext i32 %12 to i64
  store i64 %13, ptr %7, align 8
  %14 = getelementptr inbounds i8, ptr %3, i64 64
  %15 = icmp eq i32 %9, 0
  br i1 %15, label %_ZN18XArrayIteratorImplIP5XPageLb1EEC2EPK18GrowableArrayCHeapIS1_L8MEMFLAGS5EE.exit.i, label %16

16:                                               ; preds = %2
  %17 = getelementptr inbounds i8, ptr %1, i64 48
  %18 = load ptr, ptr %17, align 8
  br label %_ZN18XArrayIteratorImplIP5XPageLb1EEC2EPK18GrowableArrayCHeapIS1_L8MEMFLAGS5EE.exit.i

_ZN18XArrayIteratorImplIP5XPageLb1EEC2EPK18GrowableArrayCHeapIS1_L8MEMFLAGS5EE.exit.i: ; preds = %16, %2
  %19 = phi ptr [ %18, %16 ], [ null, %2 ]
  %20 = sext i32 %9 to i64
  store ptr %19, ptr %14, align 8
  %21 = getelementptr inbounds i8, ptr %3, i64 72
  %22 = getelementptr inbounds ptr, ptr %19, i64 %20
  store ptr %22, ptr %21, align 8
  %23 = icmp eq i32 %11, 0
  br i1 %23, label %_ZN25XRelocationSetInstallTaskC2EP20XForwardingAllocatorPK22XRelocationSetSelector.exit, label %24

24:                                               ; preds = %_ZN18XArrayIteratorImplIP5XPageLb1EEC2EPK18GrowableArrayCHeapIS1_L8MEMFLAGS5EE.exit.i
  %25 = getelementptr inbounds i8, ptr %1, i64 160
  %26 = load ptr, ptr %25, align 8
  br label %_ZN25XRelocationSetInstallTaskC2EP20XForwardingAllocatorPK22XRelocationSetSelector.exit

_ZN25XRelocationSetInstallTaskC2EP20XForwardingAllocatorPK22XRelocationSetSelector.exit: ; preds = %_ZN18XArrayIteratorImplIP5XPageLb1EEC2EPK18GrowableArrayCHeapIS1_L8MEMFLAGS5EE.exit.i, %24
  %27 = phi ptr [ %26, %24 ], [ null, %_ZN18XArrayIteratorImplIP5XPageLb1EEC2EPK18GrowableArrayCHeapIS1_L8MEMFLAGS5EE.exit.i ]
  %28 = getelementptr inbounds i8, ptr %3, i64 80
  %29 = sext i32 %11 to i64
  store ptr %27, ptr %28, align 8
  %30 = getelementptr inbounds i8, ptr %3, i64 88
  %31 = getelementptr inbounds ptr, ptr %27, i64 %29
  store ptr %31, ptr %30, align 8
  %32 = getelementptr inbounds i8, ptr %3, i64 96
  store volatile i64 %29, ptr %32, align 8
  %33 = getelementptr inbounds i8, ptr %3, i64 104
  store volatile i64 0, ptr %33, align 8
  %34 = shl nsw i64 %13, 3
  %35 = getelementptr inbounds i8, ptr %1, i64 56
  %36 = load i64, ptr %35, align 8
  %37 = getelementptr inbounds i8, ptr %1, i64 168
  %38 = load i64, ptr %37, align 8
  %39 = add i64 %38, %36
  %40 = shl i64 %39, 3
  %41 = mul nsw i64 %13, 144
  %42 = add i64 %40, %41
  call void @_ZN20XForwardingAllocator5resetEm(ptr noundef nonnull align 8 dereferenceable(24) %4, i64 noundef %42) #8
  %43 = load ptr, ptr %5, align 8
  %44 = getelementptr inbounds i8, ptr %43, i64 16
  %45 = call noundef ptr asm sideeffect "lock xaddq $0,($2)", "=r,0,r,~{cc},~{memory},~{dirflag},~{fpsr},~{flags}"(i64 %34, ptr nonnull %44) #8, !srcloc !6
  store ptr %45, ptr %6, align 8
  %46 = load ptr, ptr %0, align 8
  call void @_ZN8XWorkers3runEP5XTask(ptr noundef nonnull align 8 dereferenceable(120) %46, ptr noundef nonnull %3) #8
  %47 = load ptr, ptr %6, align 8
  %48 = getelementptr inbounds i8, ptr %0, i64 32
  store ptr %47, ptr %48, align 8
  %49 = load i64, ptr %7, align 8
  %50 = getelementptr inbounds i8, ptr %0, i64 40
  store i64 %49, ptr %50, align 8
  %51 = getelementptr inbounds i8, ptr %0, i64 16
  %52 = load ptr, ptr %51, align 8
  %53 = load ptr, ptr %4, align 8
  %54 = ptrtoint ptr %52 to i64
  %55 = ptrtoint ptr %53 to i64
  %56 = sub i64 %54, %55
  call void @_ZN15XStatRelocation29set_at_install_relocation_setEm(i64 noundef %56) #8
  ret void
}